target datalayout = "e-m:e-p270:32:32-p271:32:32-p272:64:64-i64:64-i128:128-f80:128-n8:16:32:64-S128"
target triple = "x86_64-pc-linux-gnu"

%struct.VAAPIDecodePicture = type { i32, i32, ptr, i32, i32, ptr, i32 }

; Function Attrs: nounwind uwtable
define i32 @ff_vaapi_decode_cancel(ptr noundef %0, ptr noundef %1) #0 {
  %3 = alloca ptr, align 8
  %4 = alloca ptr, align 8
  store ptr %0, ptr %3, align 8, !tbaa !4
  store ptr %1, ptr %4, align 8, !tbaa !9
  %5 = load ptr, ptr %3, align 8, !tbaa !4
  %6 = load ptr, ptr %4, align 8, !tbaa !9
  call void @ff_vaapi_decode_destroy_buffers(ptr noundef %5, ptr noundef %6)
  %7 = load ptr, ptr %4, align 8, !tbaa !9
  %8 = getelementptr inbounds nuw %struct.VAAPIDecodePicture, ptr %7, i32 0, i32 1
  store i32 0, ptr %8, align 4, !tbaa !43
  %9 = load ptr, ptr %4, align 8, !tbaa !9
  %10 = getelementptr inbounds nuw %struct.VAAPIDecodePicture, ptr %9, i32 0, i32 3
  store i32 0, ptr %10, align 8, !tbaa !45
  %11 = load ptr, ptr %4, align 8, !tbaa !9
  %12 = getelementptr inbounds nuw %struct.VAAPIDecodePicture, ptr %11, i32 0, i32 2
  call void @av_freep(ptr noundef %12)
  %13 = load ptr, ptr %4, align 8, !tbaa !9
  %14 = getelementptr inbounds nuw %struct.VAAPIDecodePicture, ptr %13, i32 0, i32 4
  store i32 0, ptr %14, align 4, !tbaa !59
  %15 = load ptr, ptr %4, align 8, !tbaa !9
  %16 = getelementptr inbounds nuw %struct.VAAPIDecodePicture, ptr %15, i32 0, i32 6
  store i32 0, ptr %16, align 8, !tbaa !60
  %17 = load ptr, ptr %4, align 8, !tbaa !9
  %18 = getelementptr inbounds nuw %struct.VAAPIDecodePicture, ptr %17, i32 0, i32 5
  call void @av_freep(ptr noundef %18)
  ret i32 0
}