; Function Attrs: nounwind uwtable
define noundef i32 @ff_vaapi_decode_cancel(ptr noundef %0, ptr noundef %1) local_unnamed_addr #0 {
  tail call fastcc void @ff_vaapi_decode_destroy_buffers(ptr noundef %0, ptr noundef %1)
  %3 = getelementptr inbounds nuw i8, ptr %1, i64 4
  store i32 0, ptr %3, align 4, !tbaa !34
  %4 = getelementptr inbounds nuw i8, ptr %1, i64 16
  store i32 0, ptr %4, align 8, !tbaa !36
  %5 = getelementptr inbounds nuw i8, ptr %1, i64 8
  tail call void @av_freep(ptr noundef nonnull %5) #4
  %6 = getelementptr inbounds nuw i8, ptr %1, i64 20
  store i32 0, ptr %6, align 4, !tbaa !50
  %7 = getelementptr inbounds nuw i8, ptr %1, i64 32
  store i32 0, ptr %7, align 8, !tbaa !51
  %8 = getelementptr inbounds nuw i8, ptr %1, i64 24
  tail call void @av_freep(ptr noundef nonnull %8) #4
  ret i32 0
}